target datalayout = "e-m:e-p270:32:32-p271:32:32-p272:64:64-i64:64-i128:128-f80:128-n8:16:32:64-S128"
target triple = "x86_64-pc-linux-gnu"

%struct.BuildCtx = type { ptr, i32, ptr, ptr, ptr, ptr, i64, i32, i32, i32, i32, i32, ptr, ptr, ptr, ptr, ptr, ptr, ptr, ptr, ptr, [200 x %struct.BuildReloc] }
%struct.BuildReloc = type { i32, i32, i32 }
%struct.anon = type { ptr, i32 }

@stderr = external global ptr, align 8
@obuf = internal global [8192 x i8] zeroinitializer, align 16
@optr = internal global ptr null, align 8
@.str.53 = private unnamed_addr constant [40 x i8] c"Error: missing libbc definition for %s\0A\00", align 1

; Function Attrs: nounwind uwtable
define internal ptr @libdef_uleb128(ptr noundef %0, ptr noundef %1) #0 {
  %3 = alloca ptr, align 8
  %4 = alloca ptr, align 8
  %5 = alloca i32, align 4
  %6 = alloca i32, align 4
  store ptr %0, ptr %3, align 8, !tbaa !22
  store ptr %1, ptr %4, align 8, !tbaa !57
  call void @llvm.lifetime.start.p0(i64 4, ptr %5) #9
  %7 = load ptr, ptr %3, align 8, !tbaa !22
  %8 = getelementptr inbounds nuw i8, ptr %7, i32 1
  store ptr %8, ptr %3, align 8, !tbaa !22
  %9 = load i8, ptr %7, align 1, !tbaa !23
  %10 = zext i8 %9 to i32
  store i32 %10, ptr %5, align 4, !tbaa !20
  %11 = load i32, ptr %5, align 4, !tbaa !20
  %12 = icmp uge i32 %11, 128
  br i1 %12, label %13, label %33

13:                                               ; preds = %2
  call void @llvm.lifetime.start.p0(i64 4, ptr %6) #9
  store i32 0, ptr %6, align 4, !tbaa !20
  %14 = load i32, ptr %5, align 4, !tbaa !20
  %15 = and i32 %14, 127
  store i32 %15, ptr %5, align 4, !tbaa !20
  br label %16

16:                                               ; preds = %26, %13
  %17 = load ptr, ptr %3, align 8, !tbaa !22
  %18 = load i8, ptr %17, align 1, !tbaa !23
  %19 = zext i8 %18 to i32
  %20 = and i32 %19, 127
  %21 = load i32, ptr %6, align 4, !tbaa !20
  %22 = add nsw i32 %21, 7
  store i32 %22, ptr %6, align 4, !tbaa !20
  %23 = shl i32 %20, %22
  %24 = load i32, ptr %5, align 4, !tbaa !20
  %25 = or i32 %24, %23
  store i32 %25, ptr %5, align 4, !tbaa !20
  br label %26

26:                                               ; preds = %16
  %27 = load ptr, ptr %3, align 8, !tbaa !22
  %28 = getelementptr inbounds nuw i8, ptr %27, i32 1
  store ptr %28, ptr %3, align 8, !tbaa !22
  %29 = load i8, ptr %27, align 1, !tbaa !23
  %30 = zext i8 %29 to i32
  %31 = icmp sge i32 %30, 128
  br i1 %31, label %16, label %32, !llvm.loop !58

32:                                               ; preds = %26
  call void @llvm.lifetime.end.p0(i64 4, ptr %6) #9
  br label %33

33:                                               ; preds = %32, %2
  %34 = load i32, ptr %5, align 4, !tbaa !20
  %35 = load ptr, ptr %4, align 8, !tbaa !57
  store i32 %34, ptr %35, align 4, !tbaa !20
  %36 = load ptr, ptr %3, align 8, !tbaa !22
  call void @llvm.lifetime.end.p0(i64 4, ptr %5) #9
  ret ptr %36
}

; Function Attrs: nounwind uwtable
define internal void @libdef_fixupbc(ptr noundef %0) #0 {
  %2 = alloca ptr, align 8
  %3 = alloca i32, align 4
  %4 = alloca i32, align 4
  %5 = alloca i8, align 1
  %6 = alloca i8, align 1
  %7 = alloca i8, align 1
  %8 = alloca i8, align 1
  store ptr %0, ptr %2, align 8, !tbaa !22
  call void @llvm.lifetime.start.p0(i64 4, ptr %3) #9
  call void @llvm.lifetime.start.p0(i64 4, ptr %4) #9
  %9 = load ptr, ptr %2, align 8, !tbaa !22
  %10 = getelementptr inbounds i8, ptr %9, i64 4
  store ptr %10, ptr %2, align 8, !tbaa !22
  %11 = load ptr, ptr %2, align 8, !tbaa !22
  %12 = call ptr @libdef_uleb128(ptr noundef %11, ptr noundef %4)
  store ptr %12, ptr %2, align 8, !tbaa !22
  %13 = load ptr, ptr %2, align 8, !tbaa !22
  %14 = call ptr @libdef_uleb128(ptr noundef %13, ptr noundef %4)
  store ptr %14, ptr %2, align 8, !tbaa !22
  %15 = load ptr, ptr %2, align 8, !tbaa !22
  %16 = call ptr @libdef_uleb128(ptr noundef %15, ptr noundef %4)
  store ptr %16, ptr %2, align 8, !tbaa !22
  store i32 0, ptr %3, align 4, !tbaa !20
  br label %17

17:                                               ; preds = %57, %1
  %18 = load i32, ptr %3, align 4, !tbaa !20
  %19 = load i32, ptr %4, align 4, !tbaa !20
  %20 = icmp ult i32 %18, %19
  br i1 %20, label %21, label %62

21:                                               ; preds = %17
  call void @llvm.lifetime.start.p0(i64 1, ptr %5) #9
  %22 = load ptr, ptr %2, align 8, !tbaa !22
  %23 = getelementptr inbounds i8, ptr %22, i64 0
  %24 = load i8, ptr %23, align 1, !tbaa !23
  store i8 %24, ptr %5, align 1, !tbaa !23
  call void @llvm.lifetime.start.p0(i64 1, ptr %6) #9
  %25 = load ptr, ptr %2, align 8, !tbaa !22
  %26 = getelementptr inbounds i8, ptr %25, i64 1
  %27 = load i8, ptr %26, align 1, !tbaa !23
  store i8 %27, ptr %6, align 1, !tbaa !23
  call void @llvm.lifetime.start.p0(i64 1, ptr %7) #9
  %28 = load ptr, ptr %2, align 8, !tbaa !22
  %29 = getelementptr inbounds i8, ptr %28, i64 2
  %30 = load i8, ptr %29, align 1, !tbaa !23
  store i8 %30, ptr %7, align 1, !tbaa !23
  call void @llvm.lifetime.start.p0(i64 1, ptr %8) #9
  %31 = load ptr, ptr %2, align 8, !tbaa !22
  %32 = getelementptr inbounds i8, ptr %31, i64 3
  %33 = load i8, ptr %32, align 1, !tbaa !23
  store i8 %33, ptr %8, align 1, !tbaa !23
  %34 = load i8, ptr %5, align 1, !tbaa !23
  %35 = zext i8 %34 to i32
  %36 = icmp eq i32 %35, 16
  br i1 %36, label %37, label %44

37:                                               ; preds = %21
  %38 = load i8, ptr %7, align 1, !tbaa !23
  %39 = zext i8 %38 to i32
  %40 = icmp eq i32 %39, 14
  br i1 %40, label %41, label %44

41:                                               ; preds = %37
  store i8 17, ptr %5, align 1, !tbaa !23
  %42 = load i8, ptr %7, align 1, !tbaa !23
  %43 = add i8 %42, 1
  store i8 %43, ptr %7, align 1, !tbaa !23
  br label %44

44:                                               ; preds = %41, %37, %21
  %45 = load i8, ptr %5, align 1, !tbaa !23
  %46 = load ptr, ptr %2, align 8, !tbaa !22
  %47 = getelementptr inbounds i8, ptr %46, i64 0
  store i8 %45, ptr %47, align 1, !tbaa !23
  %48 = load i8, ptr %6, align 1, !tbaa !23
  %49 = load ptr, ptr %2, align 8, !tbaa !22
  %50 = getelementptr inbounds i8, ptr %49, i64 1
  store i8 %48, ptr %50, align 1, !tbaa !23
  %51 = load i8, ptr %7, align 1, !tbaa !23
  %52 = load ptr, ptr %2, align 8, !tbaa !22
  %53 = getelementptr inbounds i8, ptr %52, i64 2
  store i8 %51, ptr %53, align 1, !tbaa !23
  %54 = load i8, ptr %8, align 1, !tbaa !23
  %55 = load ptr, ptr %2, align 8, !tbaa !22
  %56 = getelementptr inbounds i8, ptr %55, i64 3
  store i8 %54, ptr %56, align 1, !tbaa !23
  call void @llvm.lifetime.end.p0(i64 1, ptr %8) #9
  call void @llvm.lifetime.end.p0(i64 1, ptr %7) #9
  call void @llvm.lifetime.end.p0(i64 1, ptr %6) #9
  call void @llvm.lifetime.end.p0(i64 1, ptr %5) #9
  br label %57

57:                                               ; preds = %44
  %58 = load i32, ptr %3, align 4, !tbaa !20
  %59 = add i32 %58, 1
  store i32 %59, ptr %3, align 4, !tbaa !20
  %60 = load ptr, ptr %2, align 8, !tbaa !22
  %61 = getelementptr inbounds i8, ptr %60, i64 4
  store ptr %61, ptr %2, align 8, !tbaa !22
  br label %17, !llvm.loop !56

62:                                               ; preds = %17
  call void @llvm.lifetime.end.p0(i64 4, ptr %4) #9
  call void @llvm.lifetime.end.p0(i64 4, ptr %3) #9
  ret void
}

; Function Attrs: nounwind uwtable
define internal void @libdef_lua(ptr noundef %0, ptr noundef %1, i32 noundef %2) #0 {
  %4 = alloca ptr, align 8
  %5 = alloca ptr, align 8
  %6 = alloca i32, align 4
  %7 = alloca i32, align 4
  %8 = alloca i32, align 4
  %9 = alloca i32, align 4
  store ptr %0, ptr %4, align 8, !tbaa !4
  store ptr %1, ptr %5, align 8, !tbaa !22
  store i32 %2, ptr %6, align 4, !tbaa !20
  %10 = load ptr, ptr %4, align 8, !tbaa !4
  %11 = getelementptr inbounds nuw %struct.BuildCtx, ptr %10, i32 0, i32 1
  %12 = load i32, ptr %11, align 8, !tbaa !9
  %13 = icmp eq i32 %12, 7
  br i1 %13, label %14, label %69

14:                                               ; preds = %3
  call void @llvm.lifetime.start.p0(i64 4, ptr %7) #9
  store i32 0, ptr %7, align 4, !tbaa !20
  br label %15

15:                                               ; preds = %62, %14
  %16 = load i32, ptr %7, align 4, !tbaa !20
  %17 = sext i32 %16 to i64
  %18 = getelementptr inbounds [9 x %struct.anon], ptr @libbc_map, i64 0, i64 %17
  %19 = getelementptr inbounds nuw %struct.anon, ptr %18, i32 0, i32 0
  %20 = load ptr, ptr %19, align 16, !tbaa !43
  %21 = icmp ne ptr %20, null
  br i1 %21, label %22, label %65

22:                                               ; preds = %15
  %23 = load i32, ptr %7, align 4, !tbaa !20
  %24 = sext i32 %23 to i64
  %25 = getelementptr inbounds [9 x %struct.anon], ptr @libbc_map, i64 0, i64 %24
  %26 = getelementptr inbounds nuw %struct.anon, ptr %25, i32 0, i32 0
  %27 = load ptr, ptr %26, align 16, !tbaa !43
  %28 = load ptr, ptr %5, align 8, !tbaa !22
  %29 = call i32 @strcmp(ptr noundef %27, ptr noundef %28) #12
  %30 = icmp ne i32 %29, 0
  br i1 %30, label %61, label %31

31:                                               ; preds = %22
  call void @llvm.lifetime.start.p0(i64 4, ptr %8) #9
  %32 = load i32, ptr %7, align 4, !tbaa !20
  %33 = sext i32 %32 to i64
  %34 = getelementptr inbounds [9 x %struct.anon], ptr @libbc_map, i64 0, i64 %33
  %35 = getelementptr inbounds nuw %struct.anon, ptr %34, i32 0, i32 1
  %36 = load i32, ptr %35, align 8, !tbaa !45
  store i32 %36, ptr %8, align 4, !tbaa !20
  call void @llvm.lifetime.start.p0(i64 4, ptr %9) #9
  %37 = load i32, ptr %7, align 4, !tbaa !20
  %38 = add nsw i32 %37, 1
  %39 = sext i32 %38 to i64
  %40 = getelementptr inbounds [9 x %struct.anon], ptr @libbc_map, i64 0, i64 %39
  %41 = getelementptr inbounds nuw %struct.anon, ptr %40, i32 0, i32 1
  %42 = load i32, ptr %41, align 8, !tbaa !45
  %43 = load i32, ptr %8, align 4, !tbaa !20
  %44 = sub nsw i32 %42, %43
  store i32 %44, ptr %9, align 4, !tbaa !20
  %45 = load i8, ptr getelementptr inbounds ([8192 x i8], ptr @obuf, i64 0, i64 2), align 2, !tbaa !23
  %46 = add i8 %45, 1
  store i8 %46, ptr getelementptr inbounds ([8192 x i8], ptr @obuf, i64 0, i64 2), align 2, !tbaa !23
  %47 = load ptr, ptr @optr, align 8, !tbaa !22
  %48 = getelementptr inbounds nuw i8, ptr %47, i32 1
  store ptr %48, ptr @optr, align 8, !tbaa !22
  store i8 -7, ptr %47, align 1, !tbaa !23
  %49 = load ptr, ptr %5, align 8, !tbaa !22
  call void @libdef_name(ptr noundef %49, i32 noundef 0)
  %50 = load ptr, ptr @optr, align 8, !tbaa !22
  %51 = load i32, ptr %8, align 4, !tbaa !20
  %52 = sext i32 %51 to i64
  %53 = getelementptr inbounds i8, ptr @libbc_code, i64 %52
  %54 = load i32, ptr %9, align 4, !tbaa !20
  %55 = sext i32 %54 to i64
  call void @llvm.memcpy.p0.p0.i64(ptr align 1 %50, ptr align 1 %53, i64 %55, i1 false)
  %56 = load ptr, ptr @optr, align 8, !tbaa !22
  call void @libdef_fixupbc(ptr noundef %56)
  %57 = load i32, ptr %9, align 4, !tbaa !20
  %58 = load ptr, ptr @optr, align 8, !tbaa !22
  %59 = sext i32 %57 to i64
  %60 = getelementptr inbounds i8, ptr %58, i64 %59
  store ptr %60, ptr @optr, align 8, !tbaa !22
  call void @llvm.lifetime.end.p0(i64 4, ptr %9) #9
  call void @llvm.lifetime.end.p0(i64 4, ptr %8) #9
  call void @llvm.lifetime.end.p0(i64 4, ptr %7) #9
  br label %69

61:                                               ; preds = %22
  br label %62

62:                                               ; preds = %61
  %63 = load i32, ptr %7, align 4, !tbaa !20
  %64 = add nsw i32 %63, 1
  store i32 %64, ptr %7, align 4, !tbaa !20
  br label %15, !llvm.loop !46

65:                                               ; preds = %15
  %66 = load ptr, ptr @stderr, align 8, !tbaa !24
  %67 = load ptr, ptr %5, align 8, !tbaa !22
  %68 = call i32 (ptr, ptr, ...) @fprintf(ptr noundef %66, ptr noundef @.str.53, ptr noundef %67) #9
  call void @exit(i32 noundef 1) #11
  unreachable

69:                                               ; preds = %31, %3
  ret void
}